; Function Attrs: mustprogress uwtable
define internal fastcc void @_ZL18tcp_annotate_errorN4absl12lts_202308026StatusEPN12_GLOBAL__N_18grpc_tcpE(ptr noalias align 8 %agg.result, i64 %src_error.0.val, ptr noundef %tcp) unnamed_addr #6 personality ptr @__gxx_personality_v0 {
entry:
  %agg.tmp = alloca %"class.absl::lts_20230802::Status", align 8
  %agg.tmp1 = alloca %"class.absl::lts_20230802::Status", align 8
  %agg.tmp2 = alloca %"class.absl::lts_20230802::Status", align 8
  store i64 %src_error.0.val, ptr %agg.tmp2, align 8
  %and.i.i.i = and i64 %src_error.0.val, 1
  %cmp.i.i.i = icmp eq i64 %and.i.i.i, 0
  br i1 %cmp.i.i.i, label %_ZN4absl12lts_202308026StatusC2ERKS1_.exit, label %if.then.i.i

if.then.i.i:                                      ; preds = %entry
  %sub.i.i.i = add nsw i64 %src_error.0.val, -1
  %0 = inttoptr i64 %sub.i.i.i to ptr
  %1 = atomicrmw add ptr %0, i32 1 monotonic, align 4
  br label %_ZN4absl12lts_202308026StatusC2ERKS1_.exit

_ZN4absl12lts_202308026StatusC2ERKS1_.exit:       ; preds = %entry, %if.then.i.i
  %fd = getelementptr inbounds i8, ptr %tcp, i64 16
  %2 = load i32, ptr %fd, align 8
  %conv = sext i32 %2 to i64
  invoke void @_Z18grpc_error_set_intN4absl12lts_202308026StatusEN9grpc_core17StatusIntPropertyEl(ptr nonnull sret(%"class.absl::lts_20230802::Status") align 8 %agg.tmp1, ptr noundef nonnull %agg.tmp2, i32 noundef 10, i64 noundef %conv)
          to label %invoke.cont unwind label %lpad

invoke.cont:                                      ; preds = %_ZN4absl12lts_202308026StatusC2ERKS1_.exit
  invoke void @_Z18grpc_error_set_intN4absl12lts_202308026StatusEN9grpc_core17StatusIntPropertyEl(ptr nonnull sret(%"class.absl::lts_20230802::Status") align 8 %agg.tmp, ptr noundef nonnull %agg.tmp1, i32 noundef 3, i64 noundef 14)
          to label %invoke.cont4 unwind label %lpad3

invoke.cont4:                                     ; preds = %invoke.cont
  %peer_string = getelementptr inbounds i8, ptr %tcp, i64 488
  %call = call { i64, ptr } @_ZNKSt7__cxx1112basic_stringIcSt11char_traitsIcESaIcEEcvSt17basic_string_viewIcS2_EEv(ptr noundef nonnull align 8 dereferenceable(32) %peer_string) #24
  %3 = extractvalue { i64, ptr } %call, 0
  %4 = extractvalue { i64, ptr } %call, 1
  invoke void @_Z18grpc_error_set_strN4absl12lts_202308026StatusEN9grpc_core17StatusStrPropertyESt17basic_string_viewIcSt11char_traitsIcEE(ptr sret(%"class.absl::lts_20230802::Status") align 8 %agg.result, ptr noundef nonnull %agg.tmp, i32 noundef 4, i64 %3, ptr %4)
          to label %invoke.cont7 unwind label %lpad6

invoke.cont7:                                     ; preds = %invoke.cont4
  %5 = load i64, ptr %agg.tmp, align 8
  %and.i.i.i4 = and i64 %5, 1
  %cmp.i.i.i5 = icmp eq i64 %and.i.i.i4, 0
  br i1 %cmp.i.i.i5, label %_ZN4absl12lts_202308026StatusD2Ev.exit, label %if.then.i.i6

if.then.i.i6:                                     ; preds = %invoke.cont7
  invoke void @_ZN4absl12lts_202308026Status15UnrefNonInlinedEm(i64 noundef %5)
          to label %_ZN4absl12lts_202308026StatusD2Ev.exit unwind label %terminate.lpad.i

terminate.lpad.i:                                 ; preds = %if.then.i.i6
  %6 = landingpad { ptr, i32 }
          catch ptr null
  %7 = extractvalue { ptr, i32 } %6, 0
  call void @__clang_call_terminate(ptr %7) #27
  unreachable

_ZN4absl12lts_202308026StatusD2Ev.exit:           ; preds = %invoke.cont7, %if.then.i.i6
  %8 = load i64, ptr %agg.tmp1, align 8
  %and.i.i.i7 = and i64 %8, 1
  %cmp.i.i.i8 = icmp eq i64 %and.i.i.i7, 0
  br i1 %cmp.i.i.i8, label %_ZN4absl12lts_202308026StatusD2Ev.exit11, label %if.then.i.i9

if.then.i.i9:                                     ; preds = %_ZN4absl12lts_202308026StatusD2Ev.exit
  invoke void @_ZN4absl12lts_202308026Status15UnrefNonInlinedEm(i64 noundef %8)
          to label %_ZN4absl12lts_202308026StatusD2Ev.exit11 unwind label %terminate.lpad.i10

terminate.lpad.i10:                               ; preds = %if.then.i.i9
  %9 = landingpad { ptr, i32 }
          catch ptr null
  %10 = extractvalue { ptr, i32 } %9, 0
  call void @__clang_call_terminate(ptr %10) #27
  unreachable

_ZN4absl12lts_202308026StatusD2Ev.exit11:         ; preds = %_ZN4absl12lts_202308026StatusD2Ev.exit, %if.then.i.i9
  %11 = load i64, ptr %agg.tmp2, align 8
  %and.i.i.i12 = and i64 %11, 1
  %cmp.i.i.i13 = icmp eq i64 %and.i.i.i12, 0
  br i1 %cmp.i.i.i13, label %_ZN4absl12lts_202308026StatusD2Ev.exit16, label %if.then.i.i14

if.then.i.i14:                                    ; preds = %_ZN4absl12lts_202308026StatusD2Ev.exit11
  invoke void @_ZN4absl12lts_202308026Status15UnrefNonInlinedEm(i64 noundef %11)
          to label %_ZN4absl12lts_202308026StatusD2Ev.exit16 unwind label %terminate.lpad.i15

terminate.lpad.i15:                               ; preds = %if.then.i.i14
  %12 = landingpad { ptr, i32 }
          catch ptr null
  %13 = extractvalue { ptr, i32 } %12, 0
  call void @__clang_call_terminate(ptr %13) #27
  unreachable

_ZN4absl12lts_202308026StatusD2Ev.exit16:         ; preds = %_ZN4absl12lts_202308026StatusD2Ev.exit11, %if.then.i.i14
  ret void

lpad:                                             ; preds = %_ZN4absl12lts_202308026StatusC2ERKS1_.exit
  %14 = landingpad { ptr, i32 }
          cleanup
  br label %ehcleanup8

lpad3:                                            ; preds = %invoke.cont
  %15 = landingpad { ptr, i32 }
          cleanup
  br label %ehcleanup

lpad6:                                            ; preds = %invoke.cont4
  %16 = landingpad { ptr, i32 }
          cleanup
  call void @_ZN4absl12lts_202308026StatusD2Ev(ptr noundef nonnull align 8 dereferenceable(8) %agg.tmp) #24
  br label %ehcleanup

ehcleanup:                                        ; preds = %lpad6, %lpad3
  %.pn = phi { ptr, i32 } [ %16, %lpad6 ], [ %15, %lpad3 ]
  call void @_ZN4absl12lts_202308026StatusD2Ev(ptr noundef nonnull align 8 dereferenceable(8) %agg.tmp1) #24
  br label %ehcleanup8

ehcleanup8:                                       ; preds = %ehcleanup, %lpad
  %.pn.pn = phi { ptr, i32 } [ %.pn, %ehcleanup ], [ %14, %lpad ]
  call void @_ZN4absl12lts_202308026StatusD2Ev(ptr noundef nonnull align 8 dereferenceable(8) %agg.tmp2) #24
  resume { ptr, i32 } %.pn.pn
}